target datalayout = "e-m:e-p270:32:32-p271:32:32-p272:64:64-i64:64-i128:128-f80:128-n8:16:32:64-S128"
target triple = "x86_64-pc-linux-gnu"

%struct.opj_jp2 = type { ptr, ptr, ptr, i32, i32, i32, i32, i32, i32, i32, i32, i32, i32, i32, i32, i32, i32, ptr, ptr, i64, i64, i32, i32, i32, %struct.opj_jp2_color, i32, i8, i8 }
%struct.opj_jp2_color = type { ptr, i32, ptr, ptr, i8 }

@.str.43 = private unnamed_addr constant [50 x i8] c"The ftyp box must be the second box in the file.\0A\00", align 1
@.str.44 = private unnamed_addr constant [36 x i8] c"Error with FTYP signature Box size\0A\00", align 1
@.str.45 = private unnamed_addr constant [33 x i8] c"Not enough memory with FTYP Box\0A\00", align 1

; Function Attrs: nounwind uwtable
define internal i32 @opj_jp2_read_ftyp(ptr noundef %0, ptr noundef %1, i32 noundef %2, ptr noundef %3) #0 {
  %5 = alloca i32, align 4
  %6 = alloca ptr, align 8
  %7 = alloca ptr, align 8
  %8 = alloca i32, align 4
  %9 = alloca ptr, align 8
  %10 = alloca i32, align 4
  %11 = alloca i32, align 4
  %12 = alloca i32, align 4
  store ptr %0, ptr %6, align 8, !tbaa !3
  store ptr %1, ptr %7, align 8, !tbaa !106
  store i32 %2, ptr %8, align 4, !tbaa !39
  store ptr %3, ptr %9, align 8, !tbaa !12
  call void @llvm.lifetime.start.p0(i64 4, ptr %10) #5
  call void @llvm.lifetime.start.p0(i64 4, ptr %11) #5
  %13 = load ptr, ptr %6, align 8, !tbaa !3
  %14 = getelementptr inbounds nuw %struct.opj_jp2, ptr %13, i32 0, i32 22
  %15 = load i32, ptr %14, align 4, !tbaa !153
  %16 = icmp ne i32 %15, 1
  br i1 %16, label %17, label %20

17:                                               ; preds = %4
  %18 = load ptr, ptr %9, align 8, !tbaa !12
  %19 = call i32 (ptr, i32, ptr, ...) @opj_event_msg(ptr noundef %18, i32 noundef 1, ptr noundef @.str.43)
  store i32 0, ptr %5, align 4
  store i32 1, ptr %12, align 4
  br label %95

20:                                               ; preds = %4
  %21 = load i32, ptr %8, align 4, !tbaa !39
  %22 = icmp ult i32 %21, 8
  br i1 %22, label %23, label %26

23:                                               ; preds = %20
  %24 = load ptr, ptr %9, align 8, !tbaa !12
  %25 = call i32 (ptr, i32, ptr, ...) @opj_event_msg(ptr noundef %24, i32 noundef 1, ptr noundef @.str.44)
  store i32 0, ptr %5, align 4
  store i32 1, ptr %12, align 4
  br label %95

26:                                               ; preds = %20
  %27 = load ptr, ptr %7, align 8, !tbaa !106
  %28 = load ptr, ptr %6, align 8, !tbaa !3
  %29 = getelementptr inbounds nuw %struct.opj_jp2, ptr %28, i32 0, i32 14
  call void @opj_read_bytes_LE(ptr noundef %27, ptr noundef %29, i32 noundef 4)
  %30 = load ptr, ptr %7, align 8, !tbaa !106
  %31 = getelementptr inbounds i8, ptr %30, i64 4
  store ptr %31, ptr %7, align 8, !tbaa !106
  %32 = load ptr, ptr %7, align 8, !tbaa !106
  %33 = load ptr, ptr %6, align 8, !tbaa !3
  %34 = getelementptr inbounds nuw %struct.opj_jp2, ptr %33, i32 0, i32 15
  call void @opj_read_bytes_LE(ptr noundef %32, ptr noundef %34, i32 noundef 4)
  %35 = load ptr, ptr %7, align 8, !tbaa !106
  %36 = getelementptr inbounds i8, ptr %35, i64 4
  store ptr %36, ptr %7, align 8, !tbaa !106
  %37 = load i32, ptr %8, align 4, !tbaa !39
  %38 = sub i32 %37, 8
  store i32 %38, ptr %11, align 4, !tbaa !39
  %39 = load i32, ptr %11, align 4, !tbaa !39
  %40 = and i32 %39, 3
  %41 = icmp ne i32 %40, 0
  br i1 %41, label %42, label %45

42:                                               ; preds = %26
  %43 = load ptr, ptr %9, align 8, !tbaa !12
  %44 = call i32 (ptr, i32, ptr, ...) @opj_event_msg(ptr noundef %43, i32 noundef 1, ptr noundef @.str.44)
  store i32 0, ptr %5, align 4
  store i32 1, ptr %12, align 4
  br label %95

45:                                               ; preds = %26
  %46 = load i32, ptr %11, align 4, !tbaa !39
  %47 = lshr i32 %46, 2
  %48 = load ptr, ptr %6, align 8, !tbaa !3
  %49 = getelementptr inbounds nuw %struct.opj_jp2, ptr %48, i32 0, i32 16
  store i32 %47, ptr %49, align 4, !tbaa !47
  %50 = load ptr, ptr %6, align 8, !tbaa !3
  %51 = getelementptr inbounds nuw %struct.opj_jp2, ptr %50, i32 0, i32 16
  %52 = load i32, ptr %51, align 4, !tbaa !47
  %53 = icmp ne i32 %52, 0
  br i1 %53, label %54, label %70

54:                                               ; preds = %45
  %55 = load ptr, ptr %6, align 8, !tbaa !3
  %56 = getelementptr inbounds nuw %struct.opj_jp2, ptr %55, i32 0, i32 16
  %57 = load i32, ptr %56, align 4, !tbaa !47
  %58 = zext i32 %57 to i64
  %59 = call ptr @opj_calloc(i64 noundef %58, i64 noundef 4)
  %60 = load ptr, ptr %6, align 8, !tbaa !3
  %61 = getelementptr inbounds nuw %struct.opj_jp2, ptr %60, i32 0, i32 17
  store ptr %59, ptr %61, align 8, !tbaa !48
  %62 = load ptr, ptr %6, align 8, !tbaa !3
  %63 = getelementptr inbounds nuw %struct.opj_jp2, ptr %62, i32 0, i32 17
  %64 = load ptr, ptr %63, align 8, !tbaa !48
  %65 = icmp eq ptr %64, null
  br i1 %65, label %66, label %69

66:                                               ; preds = %54
  %67 = load ptr, ptr %9, align 8, !tbaa !12
  %68 = call i32 (ptr, i32, ptr, ...) @opj_event_msg(ptr noundef %67, i32 noundef 1, ptr noundef @.str.45)
  store i32 0, ptr %5, align 4
  store i32 1, ptr %12, align 4
  br label %95

69:                                               ; preds = %54
  br label %70

70:                                               ; preds = %69, %45
  store i32 0, ptr %10, align 4, !tbaa !39
  br label %71

71:                                               ; preds = %87, %70
  %72 = load i32, ptr %10, align 4, !tbaa !39
  %73 = load ptr, ptr %6, align 8, !tbaa !3
  %74 = getelementptr inbounds nuw %struct.opj_jp2, ptr %73, i32 0, i32 16
  %75 = load i32, ptr %74, align 4, !tbaa !47
  %76 = icmp ult i32 %72, %75
  br i1 %76, label %77, label %90

77:                                               ; preds = %71
  %78 = load ptr, ptr %7, align 8, !tbaa !106
  %79 = load ptr, ptr %6, align 8, !tbaa !3
  %80 = getelementptr inbounds nuw %struct.opj_jp2, ptr %79, i32 0, i32 17
  %81 = load ptr, ptr %80, align 8, !tbaa !48
  %82 = load i32, ptr %10, align 4, !tbaa !39
  %83 = zext i32 %82 to i64
  %84 = getelementptr inbounds nuw i32, ptr %81, i64 %83
  call void @opj_read_bytes_LE(ptr noundef %78, ptr noundef %84, i32 noundef 4)
  %85 = load ptr, ptr %7, align 8, !tbaa !106
  %86 = getelementptr inbounds i8, ptr %85, i64 4
  store ptr %86, ptr %7, align 8, !tbaa !106
  br label %87

87:                                               ; preds = %77
  %88 = load i32, ptr %10, align 4, !tbaa !39
  %89 = add i32 %88, 1
  store i32 %89, ptr %10, align 4, !tbaa !39
  br label %71, !llvm.loop !165

90:                                               ; preds = %71
  %91 = load ptr, ptr %6, align 8, !tbaa !3
  %92 = getelementptr inbounds nuw %struct.opj_jp2, ptr %91, i32 0, i32 22
  %93 = load i32, ptr %92, align 4, !tbaa !153
  %94 = or i32 %93, 2
  store i32 %94, ptr %92, align 4, !tbaa !153
  store i32 1, ptr %5, align 4
  store i32 1, ptr %12, align 4
  br label %95

95:                                               ; preds = %90, %66, %42, %23, %17
  call void @llvm.lifetime.end.p0(i64 4, ptr %11) #5
  call void @llvm.lifetime.end.p0(i64 4, ptr %10) #5
  %96 = load i32, ptr %5, align 4
  ret i32 %96
}