; Function Attrs: nounwind uwtable
define internal range(i32 0, 2) i32 @opj_jp2_read_ftyp(ptr noundef %0, ptr noundef %1, i32 noundef %2, ptr noundef %3) #0 {
  %5 = getelementptr inbounds nuw i8, ptr %0, i64 116
  %6 = load i32, ptr %5, align 4, !tbaa !125
  %.not = icmp eq i32 %6, 1
  br i1 %.not, label %9, label %7

7:                                                ; preds = %4
  %8 = tail call i32 (ptr, i32, ptr, ...) @opj_event_msg(ptr noundef %3, i32 noundef 1, ptr noundef nonnull @.str.43) #6
  br label %43

9:                                                ; preds = %4
  %10 = icmp ult i32 %2, 8
  br i1 %10, label %11, label %13

11:                                               ; preds = %9
  %12 = tail call i32 (ptr, i32, ptr, ...) @opj_event_msg(ptr noundef %3, i32 noundef 1, ptr noundef nonnull @.str.44) #6
  br label %43

13:                                               ; preds = %9
  %14 = getelementptr inbounds nuw i8, ptr %0, i64 68
  tail call void @opj_read_bytes_LE(ptr noundef %1, ptr noundef nonnull %14, i32 noundef 4) #6
  %15 = getelementptr inbounds nuw i8, ptr %1, i64 4
  %16 = getelementptr inbounds nuw i8, ptr %0, i64 72
  tail call void @opj_read_bytes_LE(ptr noundef nonnull %15, ptr noundef nonnull %16, i32 noundef 4) #6
  %17 = getelementptr inbounds nuw i8, ptr %1, i64 8
  %18 = and i32 %2, 3
  %.not32 = icmp eq i32 %18, 0
  br i1 %.not32, label %21, label %19

19:                                               ; preds = %13
  %20 = tail call i32 (ptr, i32, ptr, ...) @opj_event_msg(ptr noundef %3, i32 noundef 1, ptr noundef nonnull @.str.44) #6
  br label %43

21:                                               ; preds = %13
  %22 = add i32 %2, -8
  %23 = lshr exact i32 %22, 2
  %24 = getelementptr inbounds nuw i8, ptr %0, i64 76
  store i32 %23, ptr %24, align 4, !tbaa !80
  %.not33 = icmp eq i32 %22, 0
  br i1 %.not33, label %._crit_edge, label %25

25:                                               ; preds = %21
  %26 = zext nneg i32 %23 to i64
  %27 = tail call ptr @opj_calloc(i64 noundef %26, i64 noundef 4) #6
  %28 = getelementptr inbounds nuw i8, ptr %0, i64 80
  store ptr %27, ptr %28, align 8, !tbaa !81
  %29 = icmp eq ptr %27, null
  br i1 %29, label %30, label %32

30:                                               ; preds = %25
  %31 = tail call i32 (ptr, i32, ptr, ...) @opj_event_msg(ptr noundef %3, i32 noundef 1, ptr noundef nonnull @.str.45) #6
  br label %43

32:                                               ; preds = %25
  %.pre = load i32, ptr %24, align 4, !tbaa !80
  %.not36 = icmp eq i32 %.pre, 0
  br i1 %.not36, label %._crit_edge, label %.lr.ph

.lr.ph:                                           ; preds = %32
  %33 = getelementptr inbounds nuw i8, ptr %0, i64 80
  br label %34

34:                                               ; preds = %.lr.ph, %34
  %indvars.iv = phi i64 [ 0, %.lr.ph ], [ %indvars.iv.next, %34 ]
  %.02934 = phi ptr [ %17, %.lr.ph ], [ %37, %34 ]
  %35 = load ptr, ptr %33, align 8, !tbaa !81
  %36 = getelementptr inbounds nuw i32, ptr %35, i64 %indvars.iv
  tail call void @opj_read_bytes_LE(ptr noundef nonnull %.02934, ptr noundef %36, i32 noundef 4) #6
  %37 = getelementptr inbounds nuw i8, ptr %.02934, i64 4
  %indvars.iv.next = add nuw nsw i64 %indvars.iv, 1
  %38 = load i32, ptr %24, align 4, !tbaa !80
  %39 = zext i32 %38 to i64
  %40 = icmp samesign ult i64 %indvars.iv.next, %39
  br i1 %40, label %34, label %._crit_edge, !llvm.loop !132

._crit_edge:                                      ; preds = %34, %21, %32
  %41 = load i32, ptr %5, align 4, !tbaa !125
  %42 = or i32 %41, 2
  store i32 %42, ptr %5, align 4, !tbaa !125
  br label %43

43:                                               ; preds = %._crit_edge, %30, %19, %11, %7
  %.0 = phi i32 [ 0, %7 ], [ 0, %11 ], [ 0, %19 ], [ 0, %30 ], [ 1, %._crit_edge ]
  ret i32 %.0
}